target datalayout = "e-m:e-p270:32:32-p271:32:32-p272:64:64-i64:64-i128:128-f80:128-n8:16:32:64-S128"
target triple = "x86_64-pc-linux-gnu"

%"class.icu_77::UObject" = type { ptr }
%"class.icu_77::number::IncrementPrecision" = type { %"class.icu_77::number::Precision.base", [4 x i8] }
%"class.icu_77::number::Precision.base" = type <{ i32, [4 x i8], %"union.icu_77::number::Precision::PrecisionUnion", i32 }>
%"union.icu_77::number::Precision::PrecisionUnion" = type { %"struct.icu_77::number::Precision::PrecisionUnion::IncrementSettings" }
%"struct.icu_77::number::Precision::PrecisionUnion::IncrementSettings" = type { i64, i16, i16 }
%"class.icu_77::number::Precision" = type <{ i32, [4 x i8], %"union.icu_77::number::Precision::PrecisionUnion", i32, [4 x i8] }>
%"struct.icu_77::number::Precision::PrecisionUnion::FractionSignificantSettings" = type { i16, i16, i16, i16, i32, i8 }
%"class.icu_77::number::FractionPrecision" = type { %"class.icu_77::number::Precision.base", [4 x i8] }
%"class.icu_77::CurrencyUnit" = type { %"class.icu_77::MeasureUnit.base", [4 x i16], [4 x i8] }
%"class.icu_77::MeasureUnit.base" = type <{ %"class.icu_77::UObject", ptr, i16, i8 }>
%"class.icu_77::number::impl::RoundingImpl" = type <{ %"class.icu_77::number::Precision", i32, i8, [3 x i8] }>

; Function Attrs: mustprogress nounwind uwtable
define linkonce_odr void @_ZN6icu_776number9PrecisionC2ERKNS1_13PrecisionTypeERKNS1_14PrecisionUnionE(ptr noundef nonnull align 8 dereferenceable(28) %0, ptr noundef nonnull align 4 dereferenceable(4) %1, ptr noundef nonnull align 8 dereferenceable(16) %2) unnamed_addr #0 comdat align 2 {
  %4 = alloca ptr, align 8
  %5 = alloca ptr, align 8
  %6 = alloca ptr, align 8
  store ptr %0, ptr %4, align 8, !tbaa !25
  store ptr %1, ptr %5, align 8, !tbaa !22
  store ptr %2, ptr %6, align 8, !tbaa !63
  %7 = load ptr, ptr %4, align 8
  %8 = getelementptr inbounds nuw %"class.icu_77::number::Precision", ptr %7, i32 0, i32 0
  %9 = load ptr, ptr %5, align 8, !tbaa !22
  %10 = load i32, ptr %9, align 4, !tbaa !52
  store i32 %10, ptr %8, align 8, !tbaa !65
  %11 = getelementptr inbounds nuw %"class.icu_77::number::Precision", ptr %7, i32 0, i32 2
  %12 = load ptr, ptr %6, align 8, !tbaa !63
  call void @llvm.memcpy.p0.p0.i64(ptr align 8 %11, ptr align 8 %12, i64 16, i1 false), !tbaa.struct !68
  %13 = getelementptr inbounds nuw %"class.icu_77::number::Precision", ptr %7, i32 0, i32 3
  store i32 0, ptr %13, align 8, !tbaa !69
  ret void
}

; Function Attrs: mustprogress nounwind uwtable
define linkonce_odr void @_ZN6icu_776number9PrecisionC2E10UErrorCode(ptr noundef nonnull align 8 dereferenceable(28) %0, i32 noundef %1) unnamed_addr #0 comdat align 2 {
  %3 = alloca ptr, align 8
  %4 = alloca i32, align 4
  store ptr %0, ptr %3, align 8, !tbaa !25
  store i32 %1, ptr %4, align 4, !tbaa !15
  %5 = load ptr, ptr %3, align 8
  %6 = getelementptr inbounds nuw %"class.icu_77::number::Precision", ptr %5, i32 0, i32 0
  store i32 9, ptr %6, align 8, !tbaa !65
  %7 = getelementptr inbounds nuw %"class.icu_77::number::Precision", ptr %5, i32 0, i32 3
  store i32 0, ptr %7, align 8, !tbaa !69
  %8 = load i32, ptr %4, align 4, !tbaa !15
  %9 = getelementptr inbounds nuw %"class.icu_77::number::Precision", ptr %5, i32 0, i32 2
  store i32 %8, ptr %9, align 8, !tbaa !33
  ret void
}

; Function Attrs: inlinehint mustprogress nounwind uwtable
define linkonce_odr void @_ZN6icu_776number17FractionPrecisionCI2NS0_9PrecisionEERKNS0_9Precision13PrecisionTypeERKNS2_14PrecisionUnionE(ptr noundef nonnull align 8 dereferenceable(28) %0, ptr noundef nonnull align 4 dereferenceable(4) %1, ptr noundef nonnull align 8 dereferenceable(16) %2) unnamed_addr #2 comdat align 2 {
  %4 = alloca ptr, align 8
  %5 = alloca ptr, align 8
  %6 = alloca ptr, align 8
  store ptr %0, ptr %4, align 8, !tbaa !73
  store ptr %1, ptr %5, align 8, !tbaa !22
  store ptr %2, ptr %6, align 8, !tbaa !63
  %7 = load ptr, ptr %4, align 8
  %8 = load ptr, ptr %5, align 8
  %9 = load ptr, ptr %6, align 8
  call void @_ZN6icu_776number9PrecisionC2ERKNS1_13PrecisionTypeERKNS1_14PrecisionUnionE(ptr noundef nonnull align 8 dereferenceable(28) %7, ptr noundef nonnull align 4 dereferenceable(4) %8, ptr noundef nonnull align 8 dereferenceable(16) %9)
  ret void
}

; Function Attrs: inlinehint mustprogress uwtable
define linkonce_odr void @_ZN6icu_776number17FractionPrecisionCI2NS0_9PrecisionEE10UErrorCode(ptr noundef nonnull align 8 dereferenceable(28) %0, i32 noundef %1) unnamed_addr #3 comdat align 2 {
  %3 = alloca ptr, align 8
  %4 = alloca i32, align 4
  store ptr %0, ptr %3, align 8, !tbaa !73
  store i32 %1, ptr %4, align 4, !tbaa !15
  %5 = load ptr, ptr %3, align 8
  %6 = load i32, ptr %4, align 4, !tbaa !15
  call void @_ZN6icu_776number9PrecisionC2E10UErrorCode(ptr noundef nonnull align 8 dereferenceable(28) %5, i32 noundef %6)
  ret void
}

; Function Attrs: mustprogress uwtable
define void @_ZN6icu_776number9Precision17constructFractionEii(ptr dead_on_unwind noalias writable sret(%"class.icu_77::number::FractionPrecision") align 8 %0, i32 noundef %1, i32 noundef %2) #1 align 2 {
  %4 = alloca i32, align 4
  %5 = alloca i32, align 4
  %6 = alloca %"struct.icu_77::number::Precision::PrecisionUnion::FractionSignificantSettings", align 4
  %7 = alloca %"union.icu_77::number::Precision::PrecisionUnion", align 8
  %8 = alloca i32, align 4
  store i32 %1, ptr %4, align 4, !tbaa !14
  store i32 %2, ptr %5, align 4, !tbaa !14
  call void @llvm.lifetime.start.p0(i64 16, ptr %6) #13
  call void @llvm.memset.p0.i64(ptr align 4 %6, i8 0, i64 16, i1 false)
  %9 = load i32, ptr %4, align 4, !tbaa !14
  %10 = trunc i32 %9 to i16
  %11 = getelementptr inbounds nuw %"struct.icu_77::number::Precision::PrecisionUnion::FractionSignificantSettings", ptr %6, i32 0, i32 0
  store i16 %10, ptr %11, align 4, !tbaa !54
  %12 = load i32, ptr %5, align 4, !tbaa !14
  %13 = trunc i32 %12 to i16
  %14 = getelementptr inbounds nuw %"struct.icu_77::number::Precision::PrecisionUnion::FractionSignificantSettings", ptr %6, i32 0, i32 1
  store i16 %13, ptr %14, align 2, !tbaa !58
  %15 = getelementptr inbounds nuw %"struct.icu_77::number::Precision::PrecisionUnion::FractionSignificantSettings", ptr %6, i32 0, i32 2
  store i16 -1, ptr %15, align 4, !tbaa !59
  %16 = getelementptr inbounds nuw %"struct.icu_77::number::Precision::PrecisionUnion::FractionSignificantSettings", ptr %6, i32 0, i32 3
  store i16 -1, ptr %16, align 2, !tbaa !60
  call void @llvm.lifetime.start.p0(i64 16, ptr %7) #13
  call void @llvm.memset.p0.i64(ptr align 8 %7, i8 0, i64 16, i1 false)
  call void @llvm.memcpy.p0.p0.i64(ptr align 8 %7, ptr align 4 %6, i64 16, i1 false), !tbaa.struct !70
  call void @llvm.lifetime.start.p0(i64 4, ptr %8) #13
  store i32 2, ptr %8, align 4, !tbaa !52
  call void @_ZN6icu_776number17FractionPrecisionCI2NS0_9PrecisionEERKNS0_9Precision13PrecisionTypeERKNS2_14PrecisionUnionE(ptr noundef nonnull align 8 dereferenceable(28) %0, ptr noundef nonnull align 4 dereferenceable(4) %8, ptr noundef nonnull align 8 dereferenceable(16) %7)
  call void @llvm.lifetime.end.p0(i64 4, ptr %8) #13
  call void @llvm.lifetime.end.p0(i64 16, ptr %7) #13
  call void @llvm.lifetime.end.p0(i64 16, ptr %6) #13
  ret void
}

; Function Attrs: mustprogress uwtable
define void @_ZN6icu_776number9Precision13fixedFractionEi(ptr dead_on_unwind noalias writable sret(%"class.icu_77::number::FractionPrecision") align 8 %0, i32 noundef %1) #1 align 2 {
  %3 = alloca i32, align 4
  store i32 %1, ptr %3, align 4, !tbaa !14
  %4 = load i32, ptr %3, align 4, !tbaa !14
  %5 = icmp sge i32 %4, 0
  br i1 %5, label %6, label %12

6:                                                ; preds = %2
  %7 = load i32, ptr %3, align 4, !tbaa !14
  %8 = icmp sle i32 %7, 999
  br i1 %8, label %9, label %12

9:                                                ; preds = %6
  %10 = load i32, ptr %3, align 4, !tbaa !14
  %11 = load i32, ptr %3, align 4, !tbaa !14
  call void @_ZN6icu_776number9Precision17constructFractionEii(ptr dead_on_unwind writable sret(%"class.icu_77::number::FractionPrecision") align 8 %0, i32 noundef %10, i32 noundef %11)
  br label %13

12:                                               ; preds = %6, %2
  call void @_ZN6icu_776number17FractionPrecisionCI2NS0_9PrecisionEE10UErrorCode(ptr noundef nonnull align 8 dereferenceable(28) %0, i32 noundef 65810)
  br label %13

13:                                               ; preds = %12, %9
  ret void
}

; Function Attrs: inlinehint mustprogress nounwind uwtable
define linkonce_odr noundef ptr @_ZNK6icu_7712CurrencyUnit14getISOCurrencyEv(ptr noundef nonnull align 8 dereferenceable(28) %0) #2 comdat align 2 {
  %2 = alloca ptr, align 8
  store ptr %0, ptr %2, align 8, !tbaa !89
  %3 = load ptr, ptr %2, align 8
  %4 = getelementptr inbounds nuw %"class.icu_77::CurrencyUnit", ptr %3, i32 0, i32 1
  %5 = getelementptr inbounds [4 x i16], ptr %4, i64 0, i64 0
  ret ptr %5
}

; Function Attrs: mustprogress uwtable
define void @_ZNK6icu_776number9Precision12withCurrencyERKNS_12CurrencyUnitER10UErrorCode(ptr dead_on_unwind noalias writable sret(%"class.icu_77::number::Precision") align 8 %0, ptr noundef nonnull align 8 dereferenceable(28) %1, ptr noundef nonnull align 8 dereferenceable(28) %2, ptr noundef nonnull align 4 dereferenceable(4) %3) #1 align 2 {
  %5 = alloca ptr, align 8
  %6 = alloca ptr, align 8
  %7 = alloca ptr, align 8
  %8 = alloca ptr, align 8
  %9 = alloca double, align 8
  %10 = alloca i32, align 4
  %11 = alloca %"class.icu_77::number::IncrementPrecision", align 8
  %12 = alloca %"class.icu_77::number::FractionPrecision", align 8
  store ptr %1, ptr %5, align 8, !tbaa !25
  store ptr %2, ptr %6, align 8, !tbaa !89
  store ptr %3, ptr %7, align 8, !tbaa !22
  %13 = load ptr, ptr %5, align 8
  %14 = getelementptr inbounds nuw %"class.icu_77::number::Precision", ptr %13, i32 0, i32 0
  %15 = load i32, ptr %14, align 8, !tbaa !65
  %16 = icmp eq i32 %15, 9
  br i1 %16, label %17, label %18

17:                                               ; preds = %4
  call void @llvm.memcpy.p0.p0.i64(ptr align 8 %0, ptr align 8 %13, i64 32, i1 false)
  br label %41

18:                                               ; preds = %4
  call void @llvm.lifetime.start.p0(i64 8, ptr %8) #13
  %19 = load ptr, ptr %6, align 8, !tbaa !89
  %20 = call noundef ptr @_ZNK6icu_7712CurrencyUnit14getISOCurrencyEv(ptr noundef nonnull align 8 dereferenceable(28) %19)
  store ptr %20, ptr %8, align 8, !tbaa !38
  call void @llvm.lifetime.start.p0(i64 8, ptr %9) #13
  %21 = load ptr, ptr %8, align 8, !tbaa !38
  %22 = getelementptr inbounds nuw %"class.icu_77::number::Precision", ptr %13, i32 0, i32 2
  %23 = load i32, ptr %22, align 8, !tbaa !33
  %24 = load ptr, ptr %7, align 8, !tbaa !22
  %25 = call double @ucurr_getRoundingIncrementForUsage_77(ptr noundef %21, i32 noundef %23, ptr noundef %24)
  store double %25, ptr %9, align 8, !tbaa !76
  call void @llvm.lifetime.start.p0(i64 4, ptr %10) #13
  %26 = load ptr, ptr %8, align 8, !tbaa !38
  %27 = getelementptr inbounds nuw %"class.icu_77::number::Precision", ptr %13, i32 0, i32 2
  %28 = load i32, ptr %27, align 8, !tbaa !33
  %29 = load ptr, ptr %7, align 8, !tbaa !22
  %30 = call i32 @ucurr_getDefaultFractionDigitsForUsage_77(ptr noundef %26, i32 noundef %28, ptr noundef %29)
  store i32 %30, ptr %10, align 4, !tbaa !14
  %31 = load double, ptr %9, align 8, !tbaa !76
  %32 = fcmp une double %31, 0.000000e+00
  call void @llvm.lifetime.start.p0(i64 32, ptr %11) #13
  call void @llvm.lifetime.start.p0(i64 32, ptr %12) #13
  br i1 %32, label %33, label %35

33:                                               ; preds = %18
  %34 = load double, ptr %9, align 8, !tbaa !76
  call void @_ZN6icu_776number9Precision9incrementEd(ptr dead_on_unwind writable sret(%"class.icu_77::number::IncrementPrecision") align 8 %11, double noundef %34)
  call void @llvm.memcpy.p0.p0.i64(ptr align 8 %0, ptr align 8 %11, i64 32, i1 false)
  br label %37

35:                                               ; preds = %18
  %36 = load i32, ptr %10, align 4, !tbaa !14
  call void @_ZN6icu_776number9Precision13fixedFractionEi(ptr dead_on_unwind writable sret(%"class.icu_77::number::FractionPrecision") align 8 %12, i32 noundef %36)
  call void @llvm.memcpy.p0.p0.i64(ptr align 8 %0, ptr align 8 %12, i64 32, i1 false)
  br label %37

37:                                               ; preds = %35, %33
  call void @llvm.lifetime.end.p0(i64 32, ptr %12) #13
  call void @llvm.lifetime.end.p0(i64 32, ptr %11) #13
  %38 = getelementptr inbounds nuw %"class.icu_77::number::Precision", ptr %13, i32 0, i32 3
  %39 = load i32, ptr %38, align 8, !tbaa !69
  %40 = getelementptr inbounds nuw %"class.icu_77::number::Precision", ptr %0, i32 0, i32 3
  store i32 %39, ptr %40, align 8, !tbaa !69
  call void @llvm.lifetime.end.p0(i64 4, ptr %10) #13
  call void @llvm.lifetime.end.p0(i64 8, ptr %9) #13
  call void @llvm.lifetime.end.p0(i64 8, ptr %8) #13
  br label %41

41:                                               ; preds = %37, %17
  ret void
}

; Function Attrs: mustprogress uwtable
define void @_ZN6icu_776number4impl12RoundingImplC2ERKNS0_9PrecisionE25UNumberFormatRoundingModeRKNS_12CurrencyUnitER10UErrorCode(ptr noundef nonnull align 8 dereferenceable(37) %0, ptr noundef nonnull align 8 dereferenceable(28) %1, i32 noundef %2, ptr noundef nonnull align 8 dereferenceable(28) %3, ptr noundef nonnull align 4 dereferenceable(4) %4) unnamed_addr #1 align 2 {
  %6 = alloca ptr, align 8
  %7 = alloca ptr, align 8
  %8 = alloca i32, align 4
  %9 = alloca ptr, align 8
  %10 = alloca ptr, align 8
  %11 = alloca %"class.icu_77::number::Precision", align 8
  store ptr %0, ptr %6, align 8, !tbaa !93
  store ptr %1, ptr %7, align 8, !tbaa !25
  store i32 %2, ptr %8, align 4, !tbaa !95
  store ptr %3, ptr %9, align 8, !tbaa !89
  store ptr %4, ptr %10, align 8, !tbaa !22
  %12 = load ptr, ptr %6, align 8
  %13 = getelementptr inbounds nuw %"class.icu_77::number::impl::RoundingImpl", ptr %12, i32 0, i32 0
  %14 = load ptr, ptr %7, align 8, !tbaa !25
  call void @llvm.memcpy.p0.p0.i64(ptr align 8 %13, ptr align 8 %14, i64 32, i1 false)
  %15 = getelementptr inbounds nuw %"class.icu_77::number::impl::RoundingImpl", ptr %12, i32 0, i32 1
  %16 = load i32, ptr %8, align 4, !tbaa !95
  store i32 %16, ptr %15, align 8, !tbaa !97
  %17 = getelementptr inbounds nuw %"class.icu_77::number::impl::RoundingImpl", ptr %12, i32 0, i32 2
  store i8 0, ptr %17, align 4, !tbaa !99
  %18 = load ptr, ptr %7, align 8, !tbaa !25
  %19 = getelementptr inbounds nuw %"class.icu_77::number::Precision", ptr %18, i32 0, i32 0
  %20 = load i32, ptr %19, align 8, !tbaa !65
  %21 = icmp eq i32 %20, 8
  br i1 %21, label %22, label %27

22:                                               ; preds = %5
  call void @llvm.lifetime.start.p0(i64 32, ptr %11) #13
  %23 = load ptr, ptr %7, align 8, !tbaa !25
  %24 = load ptr, ptr %9, align 8, !tbaa !89
  %25 = load ptr, ptr %10, align 8, !tbaa !22
  call void @_ZNK6icu_776number9Precision12withCurrencyERKNS_12CurrencyUnitER10UErrorCode(ptr dead_on_unwind writable sret(%"class.icu_77::number::Precision") align 8 %11, ptr noundef nonnull align 8 dereferenceable(28) %23, ptr noundef nonnull align 8 dereferenceable(28) %24, ptr noundef nonnull align 4 dereferenceable(4) %25)
  %26 = getelementptr inbounds nuw %"class.icu_77::number::impl::RoundingImpl", ptr %12, i32 0, i32 0
  call void @llvm.memcpy.p0.p0.i64(ptr align 8 %26, ptr align 8 %11, i64 28, i1 false)
  call void @llvm.lifetime.end.p0(i64 32, ptr %11) #13
  br label %27

27:                                               ; preds = %22, %5
  ret void
}