; Function Attrs: mustprogress uwtable
define void @_ZN6icu_776number4impl12RoundingImplC2ERKNS0_9PrecisionE25UNumberFormatRoundingModeRKNS_12CurrencyUnitER10UErrorCode(ptr noundef nonnull writeonly align 8 captures(none) dereferenceable(37) initializes((0, 37)) %0, ptr noundef nonnull readonly align 8 captures(none) dereferenceable(28) %1, i32 noundef %2, ptr noundef nonnull align 8 dereferenceable(28) %3, ptr noundef nonnull align 4 dereferenceable(4) %4) unnamed_addr #1 align 2 {
  %6 = alloca %"class.icu_77::number::Precision", align 8
  tail call void @llvm.memcpy.p0.p0.i64(ptr noundef nonnull align 8 dereferenceable(32) %0, ptr noundef nonnull align 8 dereferenceable(32) %1, i64 32, i1 false)
  %7 = getelementptr inbounds nuw i8, ptr %0, i64 32
  store i32 %2, ptr %7, align 8, !tbaa !77
  %8 = getelementptr inbounds nuw i8, ptr %0, i64 36
  store i8 0, ptr %8, align 4, !tbaa !81
  %9 = load i32, ptr %1, align 8, !tbaa !27
  %10 = icmp eq i32 %9, 8
  br i1 %10, label %11, label %26

11:                                               ; preds = %5
  call void @llvm.lifetime.start.p0(i64 32, ptr nonnull %6) #22
  tail call void @llvm.experimental.noalias.scope.decl(metadata !82)
  %12 = getelementptr inbounds nuw i8, ptr %3, i64 20
  %13 = getelementptr inbounds nuw i8, ptr %1, i64 8
  %14 = load i32, ptr %13, align 8, !tbaa !17, !noalias !82
  %15 = tail call double @ucurr_getRoundingIncrementForUsage_77(ptr noundef nonnull %12, i32 noundef %14, ptr noundef nonnull align 4 dereferenceable(4) %4), !noalias !82
  %16 = load i32, ptr %13, align 8, !tbaa !17, !noalias !82
  %17 = tail call i32 @ucurr_getDefaultFractionDigitsForUsage_77(ptr noundef nonnull %12, i32 noundef %16, ptr noundef nonnull align 4 dereferenceable(4) %4), !noalias !82
  %18 = fcmp une double %15, 0.000000e+00
  br i1 %18, label %19, label %_ZN6icu_776number9Precision13fixedFractionEi.exit.i

19:                                               ; preds = %11
  call void @_ZN6icu_776number9Precision9incrementEd(ptr dead_on_unwind nonnull writable sret(%"class.icu_77::number::IncrementPrecision") align 8 %6, double noundef %15)
  br label %_ZNK6icu_776number9Precision12withCurrencyERKNS_12CurrencyUnitER10UErrorCode.exit

_ZN6icu_776number9Precision13fixedFractionEi.exit.i: ; preds = %11
  %or.cond.i.i = icmp ult i32 %17, 1000
  %.sink.i.i = select i1 %or.cond.i.i, i32 2, i32 9
  store i32 %.sink.i.i, ptr %6, align 8, !alias.scope !82
  %.sroa.48.0..sroa_idx.i = getelementptr inbounds nuw i8, ptr %6, i64 8
  %20 = shl i32 %17, 16
  %21 = and i32 %17, 65535
  %22 = or disjoint i32 %20, %21
  %.sroa.48.sroa.0.0.insert.insert.i = select i1 %or.cond.i.i, i32 %22, i32 65810
  store i32 %.sroa.48.sroa.0.0.insert.insert.i, ptr %.sroa.48.0..sroa_idx.i, align 8, !alias.scope !82
  %.sroa.7.0..sroa_idx.i = getelementptr inbounds nuw i8, ptr %6, i64 12
  store i16 -1, ptr %.sroa.7.0..sroa_idx.i, align 4, !alias.scope !82
  %.sroa.8.0..sroa_idx.i = getelementptr inbounds nuw i8, ptr %6, i64 14
  store i16 -1, ptr %.sroa.8.0..sroa_idx.i, align 2, !alias.scope !82
  %.sroa.9.0..sroa_idx.i = getelementptr inbounds nuw i8, ptr %6, i64 16
  store i64 0, ptr %.sroa.9.0..sroa_idx.i, align 8, !alias.scope !82
  br label %_ZNK6icu_776number9Precision12withCurrencyERKNS_12CurrencyUnitER10UErrorCode.exit

_ZNK6icu_776number9Precision12withCurrencyERKNS_12CurrencyUnitER10UErrorCode.exit: ; preds = %19, %_ZN6icu_776number9Precision13fixedFractionEi.exit.i
  %23 = getelementptr inbounds nuw i8, ptr %1, i64 24
  %24 = load i32, ptr %23, align 8, !tbaa !31, !noalias !82
  %25 = getelementptr inbounds nuw i8, ptr %6, i64 24
  store i32 %24, ptr %25, align 8, !tbaa !31, !alias.scope !82
  call void @llvm.memcpy.p0.p0.i64(ptr noundef nonnull align 8 dereferenceable(28) %0, ptr noundef nonnull align 8 dereferenceable(28) %6, i64 28, i1 false)
  call void @llvm.lifetime.end.p0(i64 32, ptr nonnull %6) #22
  br label %26

26:                                               ; preds = %_ZNK6icu_776number9Precision12withCurrencyERKNS_12CurrencyUnitER10UErrorCode.exit, %5
  ret void
}